target datalayout = "e-m:e-p270:32:32-p271:32:32-p272:64:64-i64:64-i128:128-f80:128-n8:16:32:64-S128"
target triple = "x86_64-pc-linux-gnu"

%"class.cv::dnn::dnn4_v20240521::Net" = type { %"struct.cv::Ptr" }
%"struct.cv::Ptr" = type { %"class.std::shared_ptr" }
%"class.std::shared_ptr" = type { %"class.std::__shared_ptr" }
%"class.std::__shared_ptr" = type { ptr, %"class.std::__shared_count" }
%"class.std::__shared_count" = type { ptr }
%"class.std::basic_streambuf" = type { ptr, ptr, ptr, ptr, ptr, ptr, ptr, %"class.std::locale" }
%"class.std::locale" = type { ptr }
%"class.std::basic_ios" = type { %"class.std::ios_base", ptr, i8, i8, ptr, ptr, ptr, ptr }
%"class.std::ios_base" = type { ptr, i64, i64, i32, i32, i32, ptr, %"struct.std::ios_base::_Words", [8 x %"struct.std::ios_base::_Words"], i32, ptr, %"class.std::locale" }
%"struct.std::ios_base::_Words" = type { ptr, i64 }
%"struct.cv::dnn::dnn4_v20240521::BufferStream" = type { %"class.std::basic_streambuf" }
%"class.std::basic_istream" = type { ptr, i64, %"class.std::basic_ios" }

; Function Attrs: mustprogress nounwind uwtable
define linkonce_odr hidden void @_ZN2cv3dnn14dnn4_v2024052112BufferStreamD2Ev(ptr noundef nonnull align 8 dereferenceable(64) %0) unnamed_addr #6 comdat align 2 {
  %2 = alloca ptr, align 8
  store ptr %0, ptr %2, align 8
  %3 = load ptr, ptr %2, align 8
  call void @_ZNSt15basic_streambufIcSt11char_traitsIcEED2Ev(ptr noundef nonnull align 8 dereferenceable(64) %3) #3
  ret void
}

; Function Attrs: mustprogress uwtable
define linkonce_odr hidden void @_ZN2cv3dnn14dnn4_v2024052112BufferStreamC2EPKcm(ptr noundef nonnull align 8 dereferenceable(64) %0, ptr noundef %1, i64 noundef %2) unnamed_addr #4 comdat align 2 personality ptr @__gxx_personality_v0 {
  %4 = alloca ptr, align 8
  %5 = alloca ptr, align 8
  %6 = alloca i64, align 8
  %7 = alloca ptr, align 8
  %8 = alloca ptr, align 8
  %9 = alloca i32, align 4
  store ptr %0, ptr %4, align 8
  store ptr %1, ptr %5, align 8
  store i64 %2, ptr %6, align 8
  %10 = load ptr, ptr %4, align 8
  call void @_ZNSt15basic_streambufIcSt11char_traitsIcEEC2Ev(ptr noundef nonnull align 8 dereferenceable(64) %10)
  store ptr getelementptr inbounds inrange(-16, 112) ({ [16 x ptr] }, ptr @_ZTVN2cv3dnn14dnn4_v2024052112BufferStreamE, i32 0, i32 0, i32 2), ptr %10, align 8
  %11 = load ptr, ptr %5, align 8
  store ptr %11, ptr %7, align 8
  %12 = load ptr, ptr %7, align 8
  %13 = load ptr, ptr %7, align 8
  %14 = load ptr, ptr %7, align 8
  %15 = load i64, ptr %6, align 8
  %16 = getelementptr inbounds i8, ptr %14, i64 %15
  invoke void @_ZNSt15basic_streambufIcSt11char_traitsIcEE4setgEPcS3_S3_(ptr noundef nonnull align 8 dereferenceable(64) %10, ptr noundef %12, ptr noundef %13, ptr noundef %16)
          to label %17 unwind label %18

17:                                               ; preds = %3
  ret void

18:                                               ; preds = %3
  %19 = landingpad { ptr, i32 }
          cleanup
  %20 = extractvalue { ptr, i32 } %19, 0
  store ptr %20, ptr %8, align 8
  %21 = extractvalue { ptr, i32 } %19, 1
  store i32 %21, ptr %9, align 4
  call void @_ZNSt15basic_streambufIcSt11char_traitsIcEED2Ev(ptr noundef nonnull align 8 dereferenceable(64) %10) #3
  br label %22

22:                                               ; preds = %18
  %23 = load ptr, ptr %8, align 8
  %24 = load i32, ptr %9, align 4
  %25 = insertvalue { ptr, i32 } poison, ptr %23, 0
  %26 = insertvalue { ptr, i32 } %25, i32 %24, 1
  resume { ptr, i32 } %26
}

; Function Attrs: mustprogress uwtable
define void @_ZN2cv3dnn14dnn4_v2024052118readNetFromDarknetEPKcmS3_m(ptr dead_on_unwind noalias writable sret(%"class.cv::dnn::dnn4_v20240521::Net") align 8 %0, ptr noundef %1, i64 noundef %2, ptr noundef %3, i64 noundef %4) #4 personality ptr @__gxx_personality_v0 {
  %6 = alloca ptr, align 8
  %7 = alloca ptr, align 8
  %8 = alloca i64, align 8
  %9 = alloca ptr, align 8
  %10 = alloca i64, align 8
  %11 = alloca %"struct.cv::dnn::dnn4_v20240521::BufferStream", align 8
  %12 = alloca %"class.std::basic_istream", align 8
  %13 = alloca ptr, align 8
  %14 = alloca i32, align 4
  %15 = alloca %"struct.cv::dnn::dnn4_v20240521::BufferStream", align 8
  %16 = alloca %"class.std::basic_istream", align 8
  %17 = alloca i32, align 4
  store ptr %0, ptr %6, align 8
  store ptr %1, ptr %7, align 8
  store i64 %2, ptr %8, align 8
  store ptr %3, ptr %9, align 8
  store i64 %4, ptr %10, align 8
  %18 = load ptr, ptr %7, align 8
  %19 = load i64, ptr %8, align 8
  call void @_ZN2cv3dnn14dnn4_v2024052112BufferStreamC2EPKcm(ptr noundef nonnull align 8 dereferenceable(64) %11, ptr noundef %18, i64 noundef %19)
  invoke void @_ZNSiC1EPSt15basic_streambufIcSt11char_traitsIcEE(ptr noundef nonnull align 8 dereferenceable(16) %12, ptr noundef %11)
          to label %20 unwind label %29

20:                                               ; preds = %5
  %21 = load i64, ptr %10, align 8
  %22 = icmp ne i64 %21, 0
  br i1 %22, label %23, label %46

23:                                               ; preds = %20
  %24 = load ptr, ptr %9, align 8
  %25 = load i64, ptr %10, align 8
  invoke void @_ZN2cv3dnn14dnn4_v2024052112BufferStreamC2EPKcm(ptr noundef nonnull align 8 dereferenceable(64) %15, ptr noundef %24, i64 noundef %25)
          to label %26 unwind label %33

26:                                               ; preds = %23
  invoke void @_ZNSiC1EPSt15basic_streambufIcSt11char_traitsIcEE(ptr noundef nonnull align 8 dereferenceable(16) %16, ptr noundef %15)
          to label %27 unwind label %37

27:                                               ; preds = %26
  invoke void @_ZN2cv3dnn14dnn4_v2024052112_GLOBAL__N_118readNetFromDarknetERSiS3_(ptr dead_on_unwind writable sret(%"class.cv::dnn::dnn4_v20240521::Net") align 8 %0, ptr noundef nonnull align 8 dereferenceable(16) %12, ptr noundef nonnull align 8 dereferenceable(16) %16)
          to label %28 unwind label %41

28:                                               ; preds = %27
  store i32 1, ptr %17, align 4
  call void @_ZNSiD1Ev(ptr noundef nonnull align 8 dereferenceable(16) %16) #3
  call void @_ZN2cv3dnn14dnn4_v2024052112BufferStreamD2Ev(ptr noundef nonnull align 8 dereferenceable(64) %15) #3
  br label %48

29:                                               ; preds = %5
  %30 = landingpad { ptr, i32 }
          cleanup
  %31 = extractvalue { ptr, i32 } %30, 0
  store ptr %31, ptr %13, align 8
  %32 = extractvalue { ptr, i32 } %30, 1
  store i32 %32, ptr %14, align 4
  br label %50

33:                                               ; preds = %46, %23
  %34 = landingpad { ptr, i32 }
          cleanup
  %35 = extractvalue { ptr, i32 } %34, 0
  store ptr %35, ptr %13, align 8
  %36 = extractvalue { ptr, i32 } %34, 1
  store i32 %36, ptr %14, align 4
  br label %49

37:                                               ; preds = %26
  %38 = landingpad { ptr, i32 }
          cleanup
  %39 = extractvalue { ptr, i32 } %38, 0
  store ptr %39, ptr %13, align 8
  %40 = extractvalue { ptr, i32 } %38, 1
  store i32 %40, ptr %14, align 4
  br label %45

41:                                               ; preds = %27
  %42 = landingpad { ptr, i32 }
          cleanup
  %43 = extractvalue { ptr, i32 } %42, 0
  store ptr %43, ptr %13, align 8
  %44 = extractvalue { ptr, i32 } %42, 1
  store i32 %44, ptr %14, align 4
  call void @_ZNSiD1Ev(ptr noundef nonnull align 8 dereferenceable(16) %16) #3
  br label %45

45:                                               ; preds = %41, %37
  call void @_ZN2cv3dnn14dnn4_v2024052112BufferStreamD2Ev(ptr noundef nonnull align 8 dereferenceable(64) %15) #3
  br label %49

46:                                               ; preds = %20
  invoke void @_ZN2cv3dnn14dnn4_v2024052112_GLOBAL__N_118readNetFromDarknetERSi(ptr dead_on_unwind writable sret(%"class.cv::dnn::dnn4_v20240521::Net") align 8 %0, ptr noundef nonnull align 8 dereferenceable(16) %12)
          to label %47 unwind label %33

47:                                               ; preds = %46
  store i32 1, ptr %17, align 4
  br label %48

48:                                               ; preds = %47, %28
  call void @_ZNSiD1Ev(ptr noundef nonnull align 8 dereferenceable(16) %12) #3
  call void @_ZN2cv3dnn14dnn4_v2024052112BufferStreamD2Ev(ptr noundef nonnull align 8 dereferenceable(64) %11) #3
  ret void

49:                                               ; preds = %45, %33
  call void @_ZNSiD1Ev(ptr noundef nonnull align 8 dereferenceable(16) %12) #3
  br label %50

50:                                               ; preds = %49, %29
  call void @_ZN2cv3dnn14dnn4_v2024052112BufferStreamD2Ev(ptr noundef nonnull align 8 dereferenceable(64) %11) #3
  br label %51

51:                                               ; preds = %50
  %52 = load ptr, ptr %13, align 8
  %53 = load i32, ptr %14, align 4
  %54 = insertvalue { ptr, i32 } poison, ptr %52, 0
  %55 = insertvalue { ptr, i32 } %54, i32 %53, 1
  resume { ptr, i32 } %55
}