; Function Attrs: mustprogress uwtable
define void @_ZN2cv3dnn14dnn4_v2024052118readNetFromDarknetEPKcmS3_m(ptr dead_on_unwind noalias writable sret(%"class.cv::dnn::dnn4_v20240521::Net") align 8 %0, ptr noundef %1, i64 noundef %2, ptr noundef %3, i64 noundef %4) local_unnamed_addr #3 personality ptr @__gxx_personality_v0 {
  %6 = alloca %"struct.cv::dnn::dnn4_v20240521::BufferStream", align 8
  %7 = alloca %"class.std::basic_istream", align 8
  %8 = alloca %"struct.cv::dnn::dnn4_v20240521::BufferStream", align 8
  %9 = alloca %"class.std::basic_istream", align 8
  call void @_ZNSt15basic_streambufIcSt11char_traitsIcEEC2Ev(ptr noundef nonnull align 8 dereferenceable(64) %6)
  store ptr getelementptr inbounds inrange(-16, 112) (i8, ptr @_ZTVN2cv3dnn14dnn4_v2024052112BufferStreamE, i64 16), ptr %6, align 8
  %10 = getelementptr inbounds i8, ptr %1, i64 %2
  invoke void @_ZNSt15basic_streambufIcSt11char_traitsIcEE4setgEPcS3_S3_(ptr noundef nonnull align 8 dereferenceable(64) %6, ptr noundef %1, ptr noundef %1, ptr noundef %10)
          to label %_ZN2cv3dnn14dnn4_v2024052112BufferStreamC2EPKcm.exit unwind label %11

common.resume:                                    ; preds = %20, %.body, %11
  %common.resume.op = phi { ptr, i32 } [ %12, %11 ], [ %.pn.pn, %.body ], [ %21, %20 ]
  call void @_ZNSt15basic_streambufIcSt11char_traitsIcEED2Ev(ptr noundef nonnull align 8 dereferenceable(64) %6) #17
  resume { ptr, i32 } %common.resume.op

11:                                               ; preds = %5
  %12 = landingpad { ptr, i32 }
          cleanup
  br label %common.resume

_ZN2cv3dnn14dnn4_v2024052112BufferStreamC2EPKcm.exit: ; preds = %5
  invoke void @_ZNSiC1EPSt15basic_streambufIcSt11char_traitsIcEE(ptr noundef nonnull align 8 dereferenceable(16) %7, ptr noundef nonnull %6)
          to label %13 unwind label %20

13:                                               ; preds = %_ZN2cv3dnn14dnn4_v2024052112BufferStreamC2EPKcm.exit
  %.not = icmp eq i64 %4, 0
  br i1 %.not, label %29, label %14

14:                                               ; preds = %13
  invoke void @_ZNSt15basic_streambufIcSt11char_traitsIcEEC2Ev(ptr noundef nonnull align 8 dereferenceable(64) %8)
          to label %.noexc unwind label %22

.noexc:                                           ; preds = %14
  store ptr getelementptr inbounds inrange(-16, 112) (i8, ptr @_ZTVN2cv3dnn14dnn4_v2024052112BufferStreamE, i64 16), ptr %8, align 8
  %15 = getelementptr inbounds i8, ptr %3, i64 %4
  invoke void @_ZNSt15basic_streambufIcSt11char_traitsIcEE4setgEPcS3_S3_(ptr noundef nonnull align 8 dereferenceable(64) %8, ptr noundef %3, ptr noundef %3, ptr noundef nonnull %15)
          to label %_ZN2cv3dnn14dnn4_v2024052112BufferStreamC2EPKcm.exit13 unwind label %16

16:                                               ; preds = %.noexc
  %17 = landingpad { ptr, i32 }
          cleanup
  call void @_ZNSt15basic_streambufIcSt11char_traitsIcEED2Ev(ptr noundef nonnull align 8 dereferenceable(64) %8) #17
  br label %.body

_ZN2cv3dnn14dnn4_v2024052112BufferStreamC2EPKcm.exit13: ; preds = %.noexc
  invoke void @_ZNSiC1EPSt15basic_streambufIcSt11char_traitsIcEE(ptr noundef nonnull align 8 dereferenceable(16) %9, ptr noundef nonnull %8)
          to label %18 unwind label %24

18:                                               ; preds = %_ZN2cv3dnn14dnn4_v2024052112BufferStreamC2EPKcm.exit13
  invoke fastcc void @_ZN2cv3dnn14dnn4_v2024052112_GLOBAL__N_118readNetFromDarknetERSiS3_(ptr dead_on_unwind noalias writable align 8 %0, ptr noundef nonnull align 8 dereferenceable(16) %7, ptr noundef nonnull align 8 dereferenceable(16) %9)
          to label %19 unwind label %26

19:                                               ; preds = %18
  call void @_ZNSiD1Ev(ptr noundef nonnull align 8 dereferenceable(16) %9) #17
  call void @_ZNSt15basic_streambufIcSt11char_traitsIcEED2Ev(ptr noundef nonnull align 8 dereferenceable(64) %8) #17
  br label %30

20:                                               ; preds = %_ZN2cv3dnn14dnn4_v2024052112BufferStreamC2EPKcm.exit
  %21 = landingpad { ptr, i32 }
          cleanup
  br label %common.resume

22:                                               ; preds = %14, %29
  %23 = landingpad { ptr, i32 }
          cleanup
  br label %.body

24:                                               ; preds = %_ZN2cv3dnn14dnn4_v2024052112BufferStreamC2EPKcm.exit13
  %25 = landingpad { ptr, i32 }
          cleanup
  br label %28

26:                                               ; preds = %18
  %27 = landingpad { ptr, i32 }
          cleanup
  call void @_ZNSiD1Ev(ptr noundef nonnull align 8 dereferenceable(16) %9) #17
  br label %28

28:                                               ; preds = %26, %24
  %.pn = phi { ptr, i32 } [ %27, %26 ], [ %25, %24 ]
  call void @_ZNSt15basic_streambufIcSt11char_traitsIcEED2Ev(ptr noundef nonnull align 8 dereferenceable(64) %8) #17
  br label %.body

29:                                               ; preds = %13
  invoke fastcc void @_ZN2cv3dnn14dnn4_v2024052112_GLOBAL__N_118readNetFromDarknetERSi(ptr dead_on_unwind noalias writable align 8 %0, ptr noundef nonnull align 8 dereferenceable(16) %7)
          to label %30 unwind label %22

30:                                               ; preds = %29, %19
  call void @_ZNSiD1Ev(ptr noundef nonnull align 8 dereferenceable(16) %7) #17
  call void @_ZNSt15basic_streambufIcSt11char_traitsIcEED2Ev(ptr noundef nonnull align 8 dereferenceable(64) %6) #17
  ret void

.body:                                            ; preds = %22, %16, %28
  %.pn.pn = phi { ptr, i32 } [ %.pn, %28 ], [ %23, %22 ], [ %17, %16 ]
  call void @_ZNSiD1Ev(ptr noundef nonnull align 8 dereferenceable(16) %7) #17
  br label %common.resume
}